target datalayout = "e-m:e-p270:32:32-p271:32:32-p272:64:64-i64:64-i128:128-f80:128-n8:16:32:64-S128"
target triple = "x86_64-pc-linux-gnu"

@.str.521 = private unnamed_addr constant [9 x i8] c"goodhost\00", align 1
@.str.543 = private unnamed_addr constant [12 x i8] c"altgoodhost\00", align 1

; Function Attrs: nounwind uwtable
define internal i32 @hostname_cb(ptr noundef %0, ptr noundef %1, ptr noundef %2) #0 {
  %4 = alloca i32, align 4
  %5 = alloca ptr, align 8
  %6 = alloca ptr, align 8
  %7 = alloca ptr, align 8
  %8 = alloca ptr, align 8
  %9 = alloca i32, align 4
  store ptr %0, ptr %5, align 8, !tbaa !21
  store ptr %1, ptr %6, align 8, !tbaa !80
  store ptr %2, ptr %7, align 8, !tbaa !16
  call void @llvm.lifetime.start.p0(i64 8, ptr %8) #9
  %10 = load ptr, ptr %5, align 8, !tbaa !21
  %11 = call ptr @SSL_get_servername(ptr noundef %10, i32 noundef 0)
  store ptr %11, ptr %8, align 8, !tbaa !11
  %12 = load ptr, ptr %8, align 8, !tbaa !11
  %13 = icmp ne ptr %12, null
  br i1 %13, label %14, label %23

14:                                               ; preds = %3
  %15 = load ptr, ptr %8, align 8, !tbaa !11
  %16 = call i32 @strcmp(ptr noundef %15, ptr noundef @.str.521) #10
  %17 = icmp eq i32 %16, 0
  br i1 %17, label %22, label %18

18:                                               ; preds = %14
  %19 = load ptr, ptr %8, align 8, !tbaa !11
  %20 = call i32 @strcmp(ptr noundef %19, ptr noundef @.str.543) #10
  %21 = icmp eq i32 %20, 0
  br i1 %21, label %22, label %23

22:                                               ; preds = %18, %14
  store i32 0, ptr %4, align 4
  store i32 1, ptr %9, align 4
  br label %24

23:                                               ; preds = %18, %3
  store i32 3, ptr %4, align 4
  store i32 1, ptr %9, align 4
  br label %24

24:                                               ; preds = %23, %22
  call void @llvm.lifetime.end.p0(i64 8, ptr %8) #9
  %25 = load i32, ptr %4, align 4
  ret i32 %25
}