; Function Attrs: nounwind uwtable
define internal range(i32 0, 4) i32 @hostname_cb(ptr noundef %0, ptr readnone captures(none) %1, ptr readnone captures(none) %2) #1 {
  %4 = tail call ptr @SSL_get_servername(ptr noundef %0, i32 noundef 0) #24
  %.not = icmp eq ptr %4, null
  br i1 %.not, label %11, label %5

5:                                                ; preds = %3
  %6 = tail call i32 @strcmp(ptr noundef nonnull dereferenceable(1) %4, ptr noundef nonnull dereferenceable(9) @.str.521) #25
  %7 = icmp eq i32 %6, 0
  br i1 %7, label %12, label %8

8:                                                ; preds = %5
  %9 = tail call i32 @strcmp(ptr noundef nonnull dereferenceable(1) %4, ptr noundef nonnull dereferenceable(12) @.str.543) #25
  %10 = icmp eq i32 %9, 0
  br i1 %10, label %12, label %11

11:                                               ; preds = %8, %3
  br label %12

12:                                               ; preds = %5, %8, %11
  %.0 = phi i32 [ 3, %11 ], [ 0, %8 ], [ 0, %5 ]
  ret i32 %.0
}